target datalayout = "e-m:e-p270:32:32-p271:32:32-p272:64:64-i64:64-i128:128-f80:128-n8:16:32:64-S128"
target triple = "x86_64-pc-linux-gnu"

%"class.grpc_core::SliceBuffer" = type { %struct.grpc_slice_buffer }
%struct.grpc_slice_buffer = type { ptr, ptr, i64, i64, i64, [6 x %struct.grpc_slice] }
%struct.grpc_slice = type { ptr, %"union.grpc_slice::grpc_slice_data" }
%"union.grpc_slice::grpc_slice_data" = type { %"struct.grpc_slice::grpc_slice_data::grpc_slice_refcounted", [8 x i8] }
%"struct.grpc_slice::grpc_slice_data::grpc_slice_refcounted" = type { i64, ptr }
%"class.grpc_core::HPackCompressor" = type { i32, i8, %"class.grpc_core::HPackEncoderTable", %"struct.grpc_core::metadata_detail::StatefulCompressor" }
%"class.grpc_core::HPackEncoderTable" = type { i32, i32, i32, i32, %"class.std::vector" }
%"class.std::vector" = type { %"struct.std::_Vector_base" }
%"struct.std::_Vector_base" = type { %"struct.std::_Vector_base<unsigned short, std::allocator<unsigned short>>::_Vector_impl" }
%"struct.std::_Vector_base<unsigned short, std::allocator<unsigned short>>::_Vector_impl" = type { %"struct.std::_Vector_base<unsigned short, std::allocator<unsigned short>>::_Vector_impl_data" }
%"struct.std::_Vector_base<unsigned short, std::allocator<unsigned short>>::_Vector_impl_data" = type { ptr, ptr, ptr }
%"struct.grpc_core::metadata_detail::StatefulCompressor" = type <{ %"struct.grpc_core::metadata_detail::SpecificStatefulCompressor", %"struct.grpc_core::metadata_detail::StatefulCompressor.base.125", [4 x i8] }>
%"struct.grpc_core::metadata_detail::SpecificStatefulCompressor" = type { %"class.grpc_core::hpack_encoder_detail::Compressor" }
%"class.grpc_core::hpack_encoder_detail::Compressor" = type { %"class.grpc_core::hpack_encoder_detail::SliceIndex" }
%"class.grpc_core::hpack_encoder_detail::SliceIndex" = type { %"class.std::vector.0" }
%"class.std::vector.0" = type { %"struct.std::_Vector_base.1" }
%"struct.std::_Vector_base.1" = type { %"struct.std::_Vector_base<grpc_core::hpack_encoder_detail::SliceIndex::ValueIndex, std::allocator<grpc_core::hpack_encoder_detail::SliceIndex::ValueIndex>>::_Vector_impl" }
%"struct.std::_Vector_base<grpc_core::hpack_encoder_detail::SliceIndex::ValueIndex, std::allocator<grpc_core::hpack_encoder_detail::SliceIndex::ValueIndex>>::_Vector_impl" = type { %"struct.std::_Vector_base<grpc_core::hpack_encoder_detail::SliceIndex::ValueIndex, std::allocator<grpc_core::hpack_encoder_detail::SliceIndex::ValueIndex>>::_Vector_impl_data" }
%"struct.std::_Vector_base<grpc_core::hpack_encoder_detail::SliceIndex::ValueIndex, std::allocator<grpc_core::hpack_encoder_detail::SliceIndex::ValueIndex>>::_Vector_impl_data" = type { ptr, ptr, ptr }
%"struct.grpc_core::metadata_detail::StatefulCompressor.base.125" = type <{ %"struct.grpc_core::metadata_detail::SpecificStatefulCompressor.6", %"struct.grpc_core::metadata_detail::StatefulCompressor.base.124" }>
%"struct.grpc_core::metadata_detail::SpecificStatefulCompressor.6" = type { %"class.grpc_core::hpack_encoder_detail::Compressor.7" }
%"class.grpc_core::hpack_encoder_detail::Compressor.7" = type { %"class.grpc_core::hpack_encoder_detail::SliceIndex" }
%"struct.grpc_core::metadata_detail::StatefulCompressor.base.124" = type { %"struct.grpc_core::metadata_detail::StatefulCompressor.base.123" }
%"struct.grpc_core::metadata_detail::StatefulCompressor.base.123" = type { %"struct.grpc_core::metadata_detail::StatefulCompressor.base.122" }
%"struct.grpc_core::metadata_detail::StatefulCompressor.base.122" = type { %"struct.grpc_core::metadata_detail::StatefulCompressor.base.121" }
%"struct.grpc_core::metadata_detail::StatefulCompressor.base.121" = type { %"struct.grpc_core::metadata_detail::SpecificStatefulCompressor.18", [4 x i8], %"struct.grpc_core::metadata_detail::StatefulCompressor.base.120" }
%"struct.grpc_core::metadata_detail::SpecificStatefulCompressor.18" = type { %"class.grpc_core::hpack_encoder_detail::Compressor.19" }
%"class.grpc_core::hpack_encoder_detail::Compressor.19" = type { i32 }
%"struct.grpc_core::metadata_detail::StatefulCompressor.base.120" = type { %"struct.grpc_core::metadata_detail::SpecificStatefulCompressor.21", [4 x i8], %"struct.grpc_core::metadata_detail::StatefulCompressor.base.119" }
%"struct.grpc_core::metadata_detail::SpecificStatefulCompressor.21" = type { %"class.grpc_core::hpack_encoder_detail::Compressor.22" }
%"class.grpc_core::hpack_encoder_detail::Compressor.22" = type { i32 }
%"struct.grpc_core::metadata_detail::StatefulCompressor.base.119" = type { %"struct.grpc_core::metadata_detail::SpecificStatefulCompressor.24", [4 x i8], %"struct.grpc_core::metadata_detail::StatefulCompressor.base.118" }
%"struct.grpc_core::metadata_detail::SpecificStatefulCompressor.24" = type { %"class.grpc_core::hpack_encoder_detail::Compressor.25" }
%"class.grpc_core::hpack_encoder_detail::Compressor.25" = type { [3 x i32] }
%"struct.grpc_core::metadata_detail::StatefulCompressor.base.118" = type { %"struct.grpc_core::metadata_detail::StatefulCompressor.base.117" }
%"struct.grpc_core::metadata_detail::StatefulCompressor.base.117" = type { %"struct.grpc_core::metadata_detail::SpecificStatefulCompressor.30", %"struct.grpc_core::metadata_detail::StatefulCompressor.base.116" }
%"struct.grpc_core::metadata_detail::SpecificStatefulCompressor.30" = type { %"class.grpc_core::hpack_encoder_detail::Compressor.31" }
%"class.grpc_core::hpack_encoder_detail::Compressor.31" = type { %"class.grpc_core::CompressionAlgorithmSet", i32 }
%"class.grpc_core::CompressionAlgorithmSet" = type { %"class.grpc_core::BitSet" }
%"class.grpc_core::BitSet" = type { [1 x i8] }
%"struct.grpc_core::metadata_detail::StatefulCompressor.base.116" = type { %"struct.grpc_core::metadata_detail::SpecificStatefulCompressor.33", %"struct.grpc_core::metadata_detail::StatefulCompressor.base.115" }
%"struct.grpc_core::metadata_detail::SpecificStatefulCompressor.33" = type { %"class.grpc_core::hpack_encoder_detail::Compressor.34" }
%"class.grpc_core::hpack_encoder_detail::Compressor.34" = type { [16 x i32] }
%"struct.grpc_core::metadata_detail::StatefulCompressor.base.115" = type { %"struct.grpc_core::metadata_detail::SpecificStatefulCompressor.36", [4 x i8], %"struct.grpc_core::metadata_detail::StatefulCompressor.base.114" }
%"struct.grpc_core::metadata_detail::SpecificStatefulCompressor.36" = type { %"class.grpc_core::hpack_encoder_detail::Compressor.37" }
%"class.grpc_core::hpack_encoder_detail::Compressor.37" = type { %"class.grpc_core::hpack_encoder_detail::TimeoutCompressorImpl" }
%"class.grpc_core::hpack_encoder_detail::TimeoutCompressorImpl" = type { [5 x %"struct.grpc_core::hpack_encoder_detail::PreviousTimeout"], i32 }
%"struct.grpc_core::hpack_encoder_detail::PreviousTimeout" = type { %"class.grpc_core::Timeout", i32 }
%"class.grpc_core::Timeout" = type <{ i16, i8, i8 }>
%"struct.grpc_core::metadata_detail::StatefulCompressor.base.114" = type { %"struct.grpc_core::metadata_detail::StatefulCompressor.base.113" }
%"struct.grpc_core::metadata_detail::StatefulCompressor.base.113" = type { %"struct.grpc_core::metadata_detail::StatefulCompressor.base.112" }
%"struct.grpc_core::metadata_detail::StatefulCompressor.base.112" = type { %"struct.grpc_core::metadata_detail::SpecificStatefulCompressor.base", [4 x i8], %"struct.grpc_core::metadata_detail::StatefulCompressor.base.111" }
%"struct.grpc_core::metadata_detail::SpecificStatefulCompressor.base" = type { %"class.grpc_core::hpack_encoder_detail::Compressor.base" }
%"class.grpc_core::hpack_encoder_detail::Compressor.base" = type <{ %"class.grpc_core::Slice", i32 }>
%"class.grpc_core::Slice" = type { %"class.grpc_core::slice_detail::BaseSlice" }
%"class.grpc_core::slice_detail::BaseSlice" = type { %struct.grpc_slice }
%"struct.grpc_core::metadata_detail::StatefulCompressor.base.111" = type { %"struct.grpc_core::metadata_detail::StatefulCompressor.base.110" }
%"struct.grpc_core::metadata_detail::StatefulCompressor.base.110" = type { %"struct.grpc_core::metadata_detail::StatefulCompressor.base.109" }
%"struct.grpc_core::metadata_detail::StatefulCompressor.base.109" = type { %"struct.grpc_core::metadata_detail::StatefulCompressor.base.108" }
%"struct.grpc_core::metadata_detail::StatefulCompressor.base.108" = type { %"struct.grpc_core::metadata_detail::StatefulCompressor.base.107" }
%"struct.grpc_core::metadata_detail::StatefulCompressor.base.107" = type { %"struct.grpc_core::metadata_detail::SpecificStatefulCompressor.60", [4 x i8], %"struct.grpc_core::metadata_detail::StatefulCompressor.base.106" }
%"struct.grpc_core::metadata_detail::SpecificStatefulCompressor.60" = type { %"class.grpc_core::hpack_encoder_detail::Compressor.61" }
%"class.grpc_core::hpack_encoder_detail::Compressor.61" = type { i32 }
%"struct.grpc_core::metadata_detail::StatefulCompressor.base.106" = type { %"struct.grpc_core::metadata_detail::SpecificStatefulCompressor.63", [4 x i8], %"struct.grpc_core::metadata_detail::StatefulCompressor.base.105" }
%"struct.grpc_core::metadata_detail::SpecificStatefulCompressor.63" = type { %"class.grpc_core::hpack_encoder_detail::Compressor.64" }
%"class.grpc_core::hpack_encoder_detail::Compressor.64" = type { i32 }
%"struct.grpc_core::metadata_detail::StatefulCompressor.base.105" = type { %"struct.grpc_core::metadata_detail::StatefulCompressor.base.104" }
%"struct.grpc_core::metadata_detail::StatefulCompressor.base.104" = type { %"struct.grpc_core::metadata_detail::StatefulCompressor.base.103" }
%"struct.grpc_core::metadata_detail::StatefulCompressor.base.103" = type { %"struct.grpc_core::metadata_detail::StatefulCompressor.base" }
%"struct.grpc_core::metadata_detail::StatefulCompressor.base" = type { %"struct.grpc_core::metadata_detail::SpecificStatefulCompressor.base.78" }
%"struct.grpc_core::metadata_detail::SpecificStatefulCompressor.base.78" = type { %"class.grpc_core::hpack_encoder_detail::Compressor.base.77" }
%"class.grpc_core::hpack_encoder_detail::Compressor.base.77" = type <{ %"class.grpc_core::Slice", i32 }>
%"class.absl::lts_20240722::log_internal::Voidify" = type { i8 }
%"class.absl::lts_20240722::log_internal::LogMessage" = type { %"class.absl::lts_20240722::base_internal::ErrnoSaver", %"class.std::unique_ptr" }
%"class.absl::lts_20240722::base_internal::ErrnoSaver" = type { i32 }
%"class.std::unique_ptr" = type { %"struct.std::__uniq_ptr_data" }
%"struct.std::__uniq_ptr_data" = type { %"class.std::__uniq_ptr_impl" }
%"class.std::__uniq_ptr_impl" = type { %"class.std::tuple" }
%"class.std::tuple" = type { %"struct.std::_Tuple_impl" }
%"struct.std::_Tuple_impl" = type { %"struct.std::_Head_base.128" }
%"struct.std::_Head_base.128" = type { ptr }
%"class.std::basic_string_view" = type { i64, ptr }
%"class.grpc_core::hpack_encoder_detail::Encoder" = type { i8, i8, ptr, ptr }
%"class.absl::lts_20240722::log_internal::LogMessageFatal" = type { %"class.absl::lts_20240722::log_internal::LogMessage" }
%"class.grpc_core::VarintWriter.130" = type { i64, i64 }

@.str.11 = private unnamed_addr constant [136 x i8] c"generated/home/dtcxzyw/WorkSpace/Projects/compilers/llvm-opt-benchmark/bench/grpc/grpc/src/core/ext/transport/chttp2/transport/varint.h\00", align 1
@.str.12 = private unnamed_addr constant [20 x i8] c"value <= UINT32_MAX\00", align 1

; Function Attrs: noinline noreturn nounwind uwtable
define linkonce_odr hidden void @__clang_call_terminate(ptr noundef %0) #15 comdat {
  %2 = call ptr @__cxa_begin_catch(ptr %0) #3
  call void @_ZSt9terminatev() #26
  unreachable
}

; Function Attrs: mustprogress nounwind uwtable
define linkonce_odr noundef i64 @_ZNSt11char_traitsIcE6lengthEPKc(ptr noundef %0) #6 comdat align 2 {
  %2 = alloca ptr, align 8
  store ptr %0, ptr %2, align 8, !tbaa !39
  %3 = load ptr, ptr %2, align 8, !tbaa !39
  %4 = call i64 @strlen(ptr noundef %3) #3
  ret i64 %4
}

; Function Attrs: mustprogress nounwind uwtable
define linkonce_odr void @_ZNKO4absl12lts_2024072212log_internal7VoidifyaaINS1_10LogMessageEEEvRKT_(ptr noundef nonnull align 1 dereferenceable(1) %0, ptr noundef nonnull align 8 dereferenceable(16) %1) #6 comdat align 2 {
  %3 = alloca ptr, align 8
  %4 = alloca ptr, align 8
  store ptr %0, ptr %3, align 8, !tbaa !121
  store ptr %1, ptr %4, align 8, !tbaa !123
  ret void
}

; Function Attrs: mustprogress nounwind uwtable
define linkonce_odr noundef nonnull align 8 dereferenceable(16) ptr @_ZN4absl12lts_2024072212log_internal10LogMessage14InternalStreamEv(ptr noundef nonnull align 8 dereferenceable(16) %0) #6 comdat align 2 {
  %2 = alloca ptr, align 8
  store ptr %0, ptr %2, align 8, !tbaa !123
  %3 = load ptr, ptr %2, align 8
  ret ptr %3
}

; Function Attrs: mustprogress nounwind uwtable
define linkonce_odr void @_ZNSt17basic_string_viewIcSt11char_traitsIcEEC2EPKc(ptr noundef nonnull align 8 dereferenceable(16) %0, ptr noundef nonnull %1) unnamed_addr #6 comdat align 2 personality ptr @__gxx_personality_v0 {
  %3 = alloca ptr, align 8
  %4 = alloca ptr, align 8
  store ptr %0, ptr %3, align 8, !tbaa !174
  store ptr %1, ptr %4, align 8, !tbaa !39
  %5 = load ptr, ptr %3, align 8
  %6 = getelementptr inbounds nuw %"class.std::basic_string_view", ptr %5, i32 0, i32 0
  %7 = load ptr, ptr %4, align 8, !tbaa !39
  %8 = invoke noundef i64 @_ZNSt11char_traitsIcE6lengthEPKc(ptr noundef %7)
          to label %9 unwind label %12

9:                                                ; preds = %2
  store i64 %8, ptr %6, align 8, !tbaa !176
  %10 = getelementptr inbounds nuw %"class.std::basic_string_view", ptr %5, i32 0, i32 1
  %11 = load ptr, ptr %4, align 8, !tbaa !39
  store ptr %11, ptr %10, align 8, !tbaa !188
  ret void

12:                                               ; preds = %2
  %13 = landingpad { ptr, i32 }
          catch ptr null
  %14 = extractvalue { ptr, i32 } %13, 0
  call void @__clang_call_terminate(ptr %14) #26
  unreachable
}

; Function Attrs: mustprogress uwtable
define linkonce_odr void @_ZNK9grpc_core12VarintWriterILh3EE5WriteEhPh(ptr noundef nonnull align 8 dereferenceable(16) %0, i8 noundef zeroext %1, ptr noundef %2) #4 comdat align 2 {
  %4 = alloca ptr, align 8
  %5 = alloca i8, align 1
  %6 = alloca ptr, align 8
  store ptr %0, ptr %4, align 8, !tbaa !158
  store i8 %1, ptr %5, align 1, !tbaa !14
  store ptr %2, ptr %6, align 8, !tbaa !39
  %7 = load ptr, ptr %4, align 8
  %8 = getelementptr inbounds nuw %"class.grpc_core::VarintWriter.130", ptr %7, i32 0, i32 1
  %9 = load i64, ptr %8, align 8, !tbaa !162
  %10 = icmp eq i64 %9, 1
  br i1 %10, label %11, label %20

11:                                               ; preds = %3
  %12 = load i8, ptr %5, align 1, !tbaa !14
  %13 = zext i8 %12 to i64
  %14 = getelementptr inbounds nuw %"class.grpc_core::VarintWriter.130", ptr %7, i32 0, i32 0
  %15 = load i64, ptr %14, align 8, !tbaa !160
  %16 = or i64 %13, %15
  %17 = trunc i64 %16 to i8
  %18 = load ptr, ptr %6, align 8, !tbaa !39
  %19 = getelementptr inbounds i8, ptr %18, i64 0
  store i8 %17, ptr %19, align 1, !tbaa !14
  br label %35

20:                                               ; preds = %3
  %21 = load i8, ptr %5, align 1, !tbaa !14
  %22 = zext i8 %21 to i32
  %23 = or i32 %22, 31
  %24 = trunc i32 %23 to i8
  %25 = load ptr, ptr %6, align 8, !tbaa !39
  %26 = getelementptr inbounds i8, ptr %25, i64 0
  store i8 %24, ptr %26, align 1, !tbaa !14
  %27 = getelementptr inbounds nuw %"class.grpc_core::VarintWriter.130", ptr %7, i32 0, i32 0
  %28 = load i64, ptr %27, align 8, !tbaa !160
  %29 = sub i64 %28, 31
  %30 = load ptr, ptr %6, align 8, !tbaa !39
  %31 = getelementptr inbounds i8, ptr %30, i64 1
  %32 = getelementptr inbounds nuw %"class.grpc_core::VarintWriter.130", ptr %7, i32 0, i32 1
  %33 = load i64, ptr %32, align 8, !tbaa !162
  %34 = sub i64 %33, 1
  call void @_ZN9grpc_core15VarintWriteTailEmPhm(i64 noundef %29, ptr noundef %31, i64 noundef %34)
  br label %35

35:                                               ; preds = %20, %11
  ret void
}

; Function Attrs: mustprogress uwtable
define linkonce_odr noundef ptr @_ZN9grpc_core11SliceBuffer7AddTinyEm(ptr noundef nonnull align 8 dereferenceable(232) %0, i64 noundef %1) #4 comdat align 2 {
  %3 = alloca ptr, align 8
  %4 = alloca i64, align 8
  store ptr %0, ptr %3, align 8, !tbaa !10
  store i64 %1, ptr %4, align 8, !tbaa !30
  %5 = load ptr, ptr %3, align 8
  %6 = getelementptr inbounds nuw %"class.grpc_core::SliceBuffer", ptr %5, i32 0, i32 0
  %7 = load i64, ptr %4, align 8, !tbaa !30
  %8 = call ptr @grpc_slice_buffer_tiny_add(ptr noundef %6, i64 noundef %7)
  ret ptr %8
}

; Function Attrs: mustprogress nounwind uwtable
define linkonce_odr noundef i64 @_ZNK9grpc_core12VarintWriterILh3EE6lengthEv(ptr noundef nonnull align 8 dereferenceable(16) %0) #6 comdat align 2 {
  %2 = alloca ptr, align 8
  store ptr %0, ptr %2, align 8, !tbaa !158
  %3 = load ptr, ptr %2, align 8
  %4 = getelementptr inbounds nuw %"class.grpc_core::VarintWriter.130", ptr %3, i32 0, i32 1
  %5 = load i64, ptr %4, align 8, !tbaa !162
  ret i64 %5
}

; Function Attrs: mustprogress uwtable
define linkonce_odr void @_ZN9grpc_core12VarintWriterILh3EEC2Em(ptr noundef nonnull align 8 dereferenceable(16) %0, i64 noundef %1) unnamed_addr #4 comdat align 2 {
  %3 = alloca ptr, align 8
  %4 = alloca i64, align 8
  %5 = alloca %"class.absl::lts_20240722::log_internal::Voidify", align 1
  %6 = alloca %"class.absl::lts_20240722::log_internal::LogMessageFatal", align 8
  %7 = alloca i1, align 1
  %8 = alloca %"class.std::basic_string_view", align 8
  %9 = alloca i1, align 1
  store ptr %0, ptr %3, align 8, !tbaa !158
  store i64 %1, ptr %4, align 8, !tbaa !30
  %10 = load ptr, ptr %3, align 8
  %11 = getelementptr inbounds nuw %"class.grpc_core::VarintWriter.130", ptr %10, i32 0, i32 0
  %12 = load i64, ptr %4, align 8, !tbaa !30
  store i64 %12, ptr %11, align 8, !tbaa !160
  %13 = getelementptr inbounds nuw %"class.grpc_core::VarintWriter.130", ptr %10, i32 0, i32 1
  %14 = load i64, ptr %4, align 8, !tbaa !30
  %15 = icmp ult i64 %14, 31
  br i1 %15, label %16, label %17

16:                                               ; preds = %2
  br label %21

17:                                               ; preds = %2
  %18 = load i64, ptr %4, align 8, !tbaa !30
  %19 = sub i64 %18, 31
  %20 = call noundef i64 @_ZN9grpc_core12VarintLengthEm(i64 noundef %19)
  br label %21

21:                                               ; preds = %17, %16
  %22 = phi i64 [ 1, %16 ], [ %20, %17 ]
  store i64 %22, ptr %13, align 8, !tbaa !162
  %23 = load i64, ptr %4, align 8, !tbaa !30
  %24 = icmp ule i64 %23, 4294967295
  %25 = xor i1 %24, true
  %26 = zext i1 %25 to i64
  %27 = call i64 @llvm.expect.i64(i64 %26, i64 0)
  %28 = icmp ne i64 %27, 0
  call void @llvm.lifetime.start.p0(i64 1, ptr %5) #3
  store i1 false, ptr %7, align 1
  store i1 false, ptr %9, align 1
  br i1 %28, label %30, label %29

29:                                               ; preds = %21
  br label %36

30:                                               ; preds = %21
  call void @llvm.lifetime.start.p0(i64 16, ptr %6) #3
  store i1 true, ptr %7, align 1
  call void @_ZNSt17basic_string_viewIcSt11char_traitsIcEEC2EPKc(ptr noundef nonnull align 8 dereferenceable(16) %8, ptr noundef @.str.12) #3
  %31 = getelementptr inbounds nuw { i64, ptr }, ptr %8, i32 0, i32 0
  %32 = load i64, ptr %31, align 8
  %33 = getelementptr inbounds nuw { i64, ptr }, ptr %8, i32 0, i32 1
  %34 = load ptr, ptr %33, align 8
  call void @_ZN4absl12lts_2024072212log_internal15LogMessageFatalC1EPKciSt17basic_string_viewIcSt11char_traitsIcEE(ptr noundef nonnull align 8 dereferenceable(16) %6, ptr noundef @.str.11, i32 noundef 52, i64 %32, ptr %34) #24
  store i1 true, ptr %9, align 1
  %35 = call noundef nonnull align 8 dereferenceable(16) ptr @_ZN4absl12lts_2024072212log_internal10LogMessage14InternalStreamEv(ptr noundef nonnull align 8 dereferenceable(16) %6)
  call void @_ZNKO4absl12lts_2024072212log_internal7VoidifyaaINS1_10LogMessageEEEvRKT_(ptr noundef nonnull align 1 dereferenceable(1) %5, ptr noundef nonnull align 8 dereferenceable(16) %35)
  br label %36

36:                                               ; preds = %30, %29
  %37 = load i1, ptr %9, align 1
  br i1 %37, label %38, label %40

38:                                               ; preds = %36
  call void @_ZN4absl12lts_2024072212log_internal15LogMessageFatalD1Ev(ptr noundef nonnull align 8 dereferenceable(16) %6) #26
  unreachable

39:                                               ; No predecessors!
  br label %40

40:                                               ; preds = %39, %36
  %41 = load i1, ptr %7, align 1
  br i1 %41, label %42, label %43

42:                                               ; preds = %40
  call void @llvm.lifetime.end.p0(i64 16, ptr %6) #3
  br label %43

43:                                               ; preds = %42, %40
  call void @llvm.lifetime.end.p0(i64 1, ptr %5) #3
  ret void
}

; Function Attrs: mustprogress nounwind uwtable
define linkonce_odr noundef i32 @_ZNK9grpc_core17HPackEncoderTable8max_sizeEv(ptr noundef nonnull align 8 dereferenceable(40) %0) #6 comdat align 2 {
  %2 = alloca ptr, align 8
  store ptr %0, ptr %2, align 8, !tbaa !116
  %3 = load ptr, ptr %2, align 8
  %4 = getelementptr inbounds nuw %"class.grpc_core::HPackEncoderTable", ptr %3, i32 0, i32 1
  %5 = load i32, ptr %4, align 4, !tbaa !118
  ret i32 %5
}

; Function Attrs: mustprogress uwtable
define void @_ZN9grpc_core20hpack_encoder_detail7Encoder24AdvertiseTableSizeChangeEv(ptr noundef nonnull align 8 dereferenceable(24) %0) #4 align 2 {
  %2 = alloca ptr, align 8
  %3 = alloca %"class.grpc_core::VarintWriter.130", align 8
  store ptr %0, ptr %2, align 8, !tbaa !125
  %4 = load ptr, ptr %2, align 8
  call void @llvm.lifetime.start.p0(i64 16, ptr %3) #3
  %5 = getelementptr inbounds nuw %"class.grpc_core::hpack_encoder_detail::Encoder", ptr %4, i32 0, i32 2
  %6 = load ptr, ptr %5, align 8, !tbaa !136
  %7 = getelementptr inbounds nuw %"class.grpc_core::HPackCompressor", ptr %6, i32 0, i32 2
  %8 = call noundef i32 @_ZNK9grpc_core17HPackEncoderTable8max_sizeEv(ptr noundef nonnull align 8 dereferenceable(40) %7)
  %9 = zext i32 %8 to i64
  call void @_ZN9grpc_core12VarintWriterILh3EEC2Em(ptr noundef nonnull align 8 dereferenceable(16) %3, i64 noundef %9)
  %10 = getelementptr inbounds nuw %"class.grpc_core::hpack_encoder_detail::Encoder", ptr %4, i32 0, i32 3
  %11 = load ptr, ptr %10, align 8, !tbaa !127
  %12 = call noundef i64 @_ZNK9grpc_core12VarintWriterILh3EE6lengthEv(ptr noundef nonnull align 8 dereferenceable(16) %3)
  %13 = call noundef ptr @_ZN9grpc_core11SliceBuffer7AddTinyEm(ptr noundef nonnull align 8 dereferenceable(232) %11, i64 noundef %12)
  call void @_ZNK9grpc_core12VarintWriterILh3EE5WriteEhPh(ptr noundef nonnull align 8 dereferenceable(16) %3, i8 noundef zeroext 32, ptr noundef %13)
  call void @llvm.lifetime.end.p0(i64 16, ptr %3) #3
  ret void
}