; Function Attrs: mustprogress uwtable
define void @_ZN9grpc_core20hpack_encoder_detail7Encoder24AdvertiseTableSizeChangeEv(ptr noundef nonnull readonly align 8 captures(none) dereferenceable(24) %0) local_unnamed_addr #3 align 2 personality ptr @__gxx_personality_v0 {
  %2 = getelementptr inbounds nuw i8, ptr %0, i64 8
  %3 = load ptr, ptr %2, align 8, !tbaa !133
  %4 = getelementptr inbounds nuw i8, ptr %3, i64 12
  %5 = load i32, ptr %4, align 4, !tbaa !99
  %6 = icmp ult i32 %5, 31
  br i1 %6, label %_ZN9grpc_core12VarintWriterILh3EEC2Em.exit.thread, label %_ZN9grpc_core12VarintWriterILh3EEC2Em.exit

_ZN9grpc_core12VarintWriterILh3EEC2Em.exit.thread: ; preds = %1
  %7 = getelementptr inbounds nuw i8, ptr %0, i64 16
  %8 = load ptr, ptr %7, align 8, !tbaa !103
  %9 = tail call noundef ptr @grpc_slice_buffer_tiny_add(ptr noundef nonnull align 8 dereferenceable(232) %8, i64 noundef 1)
  br label %17

_ZN9grpc_core12VarintWriterILh3EEC2Em.exit:       ; preds = %1
  %10 = zext i32 %5 to i64
  %11 = add nsw i64 %10, -31
  %12 = tail call noundef i64 @_ZN9grpc_core12VarintLengthEm(i64 noundef %11)
  %13 = getelementptr inbounds nuw i8, ptr %0, i64 16
  %14 = load ptr, ptr %13, align 8, !tbaa !103
  %15 = tail call noundef ptr @grpc_slice_buffer_tiny_add(ptr noundef nonnull align 8 dereferenceable(232) %14, i64 noundef %12)
  %16 = icmp eq i64 %12, 1
  br i1 %16, label %17, label %21

17:                                               ; preds = %_ZN9grpc_core12VarintWriterILh3EEC2Em.exit.thread, %_ZN9grpc_core12VarintWriterILh3EEC2Em.exit
  %18 = phi ptr [ %9, %_ZN9grpc_core12VarintWriterILh3EEC2Em.exit.thread ], [ %15, %_ZN9grpc_core12VarintWriterILh3EEC2Em.exit ]
  %19 = trunc i32 %5 to i8
  %20 = or i8 %19, 32
  store i8 %20, ptr %18, align 1, !tbaa !25
  br label %_ZNK9grpc_core12VarintWriterILh3EE5WriteEhPh.exit

21:                                               ; preds = %_ZN9grpc_core12VarintWriterILh3EEC2Em.exit
  store i8 63, ptr %15, align 1, !tbaa !25
  %22 = getelementptr inbounds nuw i8, ptr %15, i64 1
  %23 = add i64 %12, -1
  tail call void @_ZN9grpc_core15VarintWriteTailEmPhm(i64 noundef %11, ptr noundef nonnull %22, i64 noundef %23)
  br label %_ZNK9grpc_core12VarintWriterILh3EE5WriteEhPh.exit

_ZNK9grpc_core12VarintWriterILh3EE5WriteEhPh.exit: ; preds = %17, %21
  ret void
}